; ModuleID = '21/367.c'
source_filename = "21/367.c"
target datalayout = "e-m:e-p270:32:32-p271:32:32-p272:64:64-i64:64-f80:128-n8:16:32:64-S128"
target triple = "x86_64-pc-linux-gnu"

@.str = private unnamed_addr constant [3 x i8] c"%d\00", align 1
@.str.1 = private unnamed_addr constant [4 x i8] c",%d\00", align 1

; Function Attrs: noinline nounwind uwtable
define dso_local void @main() #0 {
  %1 = alloca i32, align 4
  %2 = alloca i32, align 4
  %3 = alloca [400 x i32], align 16
  %4 = alloca i32, align 4
  %5 = alloca [400 x i32], align 16
  %6 = alloca i32, align 4
  %7 = alloca float, align 4
  %8 = alloca float, align 4
  %9 = alloca [400 x float], align 16
  store float 0.000000e+00, float* %8, align 4
  %10 = call i32 (i8*, ...) @__isoc99_scanf(i8* getelementptr inbounds ([3 x i8], [3 x i8]* @.str, i64 0, i64 0), i32* %1)
  store i32 0, i32* %2, align 4
  br label %11

11:                                               ; preds = %27, %0
  %12 = load i32, i32* %2, align 4
  %13 = load i32, i32* %1, align 4
  %14 = icmp slt i32 %12, %13
  br i1 %14, label %15, label %30

15:                                               ; preds = %11
  %16 = load i32, i32* %2, align 4
  %17 = sext i32 %16 to i64
  %18 = getelementptr inbounds [400 x i32], [400 x i32]* %3, i64 0, i64 %17
  %19 = call i32 (i8*, ...) @__isoc99_scanf(i8* getelementptr inbounds ([3 x i8], [3 x i8]* @.str, i64 0, i64 0), i32* %18)
  %20 = load float, float* %8, align 4
  %21 = load i32, i32* %2, align 4
  %22 = sext i32 %21 to i64
  %23 = getelementptr inbounds [400 x i32], [400 x i32]* %3, i64 0, i64 %22
  %24 = load i32, i32* %23, align 4
  %25 = sitofp i32 %24 to float
  %26 = fadd float %20, %25
  store float %26, float* %8, align 4
  br label %27

27:                                               ; preds = %15
  %28 = load i32, i32* %2, align 4
  %29 = add nsw i32 %28, 1
  store i32 %29, i32* %2, align 4
  br label %11

30:                                               ; preds = %11
  %31 = load float, float* %8, align 4
  %32 = load i32, i32* %1, align 4
  %33 = sitofp i32 %32 to float
  %34 = fdiv float %31, %33
  store float %34, float* %8, align 4
  store i32 0, i32* %2, align 4
  br label %35

35:                                               ; preds = %71, %30
  %36 = load i32, i32* %2, align 4
  %37 = load i32, i32* %1, align 4
  %38 = icmp slt i32 %36, %37
  br i1 %38, label %39, label %74

39:                                               ; preds = %35
  %40 = load i32, i32* %2, align 4
  %41 = sext i32 %40 to i64
  %42 = getelementptr inbounds [400 x i32], [400 x i32]* %3, i64 0, i64 %41
  %43 = load i32, i32* %42, align 4
  %44 = sitofp i32 %43 to float
  %45 = load float, float* %8, align 4
  %46 = fsub float %44, %45
  %47 = fcmp oge float %46, 0.000000e+00
  br i1 %47, label %48, label %59

48:                                               ; preds = %39
  %49 = load i32, i32* %2, align 4
  %50 = sext i32 %49 to i64
  %51 = getelementptr inbounds [400 x i32], [400 x i32]* %3, i64 0, i64 %50
  %52 = load i32, i32* %51, align 4
  %53 = sitofp i32 %52 to float
  %54 = load float, float* %8, align 4
  %55 = fsub float %53, %54
  %56 = load i32, i32* %2, align 4
  %57 = sext i32 %56 to i64
  %58 = getelementptr inbounds [400 x float], [400 x float]* %9, i64 0, i64 %57
  store float %55, float* %58, align 4
  br label %70

59:                                               ; preds = %39
  %60 = load float, float* %8, align 4
  %61 = load i32, i32* %2, align 4
  %62 = sext i32 %61 to i64
  %63 = getelementptr inbounds [400 x i32], [400 x i32]* %3, i64 0, i64 %62
  %64 = load i32, i32* %63, align 4
  %65 = sitofp i32 %64 to float
  %66 = fsub float %60, %65
  %67 = load i32, i32* %2, align 4
  %68 = sext i32 %67 to i64
  %69 = getelementptr inbounds [400 x float], [400 x float]* %9, i64 0, i64 %68
  store float %66, float* %69, align 4
  br label %70

70:                                               ; preds = %59, %48
  br label %71

71:                                               ; preds = %70
  %72 = load i32, i32* %2, align 4
  %73 = add nsw i32 %72, 1
  store i32 %73, i32* %2, align 4
  br label %35

74:                                               ; preds = %35
  store i32 1, i32* %2, align 4
  %75 = getelementptr inbounds [400 x float], [400 x float]* %9, i64 0, i64 0
  %76 = load float, float* %75, align 16
  store float %76, float* %7, align 4
  br label %77

77:                                               ; preds = %94, %74
  %78 = load i32, i32* %2, align 4
  %79 = load i32, i32* %1, align 4
  %80 = icmp slt i32 %78, %79
  br i1 %80, label %81, label %97

81:                                               ; preds = %77
  %82 = load float, float* %7, align 4
  %83 = load i32, i32* %2, align 4
  %84 = sext i32 %83 to i64
  %85 = getelementptr inbounds [400 x float], [400 x float]* %9, i64 0, i64 %84
  %86 = load float, float* %85, align 4
  %87 = fcmp olt float %82, %86
  br i1 %87, label %88, label %93

88:                                               ; preds = %81
  %89 = load i32, i32* %2, align 4
  %90 = sext i32 %89 to i64
  %91 = getelementptr inbounds [400 x float], [400 x float]* %9, i64 0, i64 %90
  %92 = load float, float* %91, align 4
  store float %92, float* %7, align 4
  br label %93

93:                                               ; preds = %88, %81
  br label %94

94:                                               ; preds = %93
  %95 = load i32, i32* %2, align 4
  %96 = add nsw i32 %95, 1
  store i32 %96, i32* %2, align 4
  br label %77

97:                                               ; preds = %77
  store i32 0, i32* %2, align 4
  store i32 0, i32* %4, align 4
  br label %98

98:                                               ; preds = %119, %97
  %99 = load i32, i32* %2, align 4
  %100 = load i32, i32* %1, align 4
  %101 = icmp slt i32 %99, %100
  br i1 %101, label %102, label %122

102:                                              ; preds = %98
  %103 = load i32, i32* %2, align 4
  %104 = sext i32 %103 to i64
  %105 = getelementptr inbounds [400 x float], [400 x float]* %9, i64 0, i64 %104
  %106 = load float, float* %105, align 4
  %107 = load float, float* %7, align 4
  %108 = fcmp oeq float %106, %107
  br i1 %108, label %109, label %118

109:                                              ; preds = %102
  %110 = load i32, i32* %2, align 4
  %111 = sext i32 %110 to i64
  %112 = getelementptr inbounds [400 x i32], [400 x i32]* %3, i64 0, i64 %111
  %113 = load i32, i32* %112, align 4
  %114 = load i32, i32* %4, align 4
  %115 = add nsw i32 %114, 1
  store i32 %115, i32* %4, align 4
  %116 = sext i32 %114 to i64
  %117 = getelementptr inbounds [400 x i32], [400 x i32]* %5, i64 0, i64 %116
  store i32 %113, i32* %117, align 4
  br label %118

118:                                              ; preds = %109, %102
  br label %119

119:                                              ; preds = %118
  %120 = load i32, i32* %2, align 4
  %121 = add nsw i32 %120, 1
  store i32 %121, i32* %2, align 4
  br label %98

122:                                              ; preds = %98
  store i32 0, i32* %2, align 4
  br label %123

123:                                              ; preds = %169, %122
  %124 = load i32, i32* %2, align 4
  %125 = load i32, i32* %4, align 4
  %126 = icmp slt i32 %124, %125
  br i1 %126, label %127, label %172

127:                                              ; preds = %123
  store i32 0, i32* %6, align 4
  br label %128

128:                                              ; preds = %165, %127
  %129 = load i32, i32* %6, align 4
  %130 = load i32, i32* %4, align 4
  %131 = load i32, i32* %2, align 4
  %132 = sub nsw i32 %130, %131
  %133 = sub nsw i32 %132, 1
  %134 = icmp slt i32 %129, %133
  br i1 %134, label %135, label %168

135:                                              ; preds = %128
  %136 = load i32, i32* %6, align 4
  %137 = sext i32 %136 to i64
  %138 = getelementptr inbounds [400 x i32], [400 x i32]* %5, i64 0, i64 %137
  %139 = load i32, i32* %138, align 4
  %140 = load i32, i32* %6, align 4
  %141 = add nsw i32 %140, 1
  %142 = sext i32 %141 to i64
  %143 = getelementptr inbounds [400 x i32], [400 x i32]* %5, i64 0, i64 %142
  %144 = load i32, i32* %143, align 4
  %145 = icmp sgt i32 %139, %144
  br i1 %145, label %146, label %164

146:                                              ; preds = %135
  %147 = load i32, i32* %6, align 4
  %148 = sext i32 %147 to i64
  %149 = getelementptr inbounds [400 x i32], [400 x i32]* %5, i64 0, i64 %148
  %150 = load i32, i32* %149, align 4
  store i32 %150, i32* %1, align 4
  %151 = load i32, i32* %6, align 4
  %152 = add nsw i32 %151, 1
  %153 = sext i32 %152 to i64
  %154 = getelementptr inbounds [400 x i32], [400 x i32]* %5, i64 0, i64 %153
  %155 = load i32, i32* %154, align 4
  %156 = load i32, i32* %6, align 4
  %157 = sext i32 %156 to i64
  %158 = getelementptr inbounds [400 x i32], [400 x i32]* %5, i64 0, i64 %157
  store i32 %155, i32* %158, align 4
  %159 = load i32, i32* %1, align 4
  %160 = load i32, i32* %6, align 4
  %161 = add nsw i32 %160, 1
  %162 = sext i32 %161 to i64
  %163 = getelementptr inbounds [400 x i32], [400 x i32]* %5, i64 0, i64 %162
  store i32 %159, i32* %163, align 4
  br label %164

164:                                              ; preds = %146, %135
  br label %165

165:                                              ; preds = %164
  %166 = load i32, i32* %6, align 4
  %167 = add nsw i32 %166, 1
  store i32 %167, i32* %6, align 4
  br label %128

168:                                              ; preds = %128
  br label %169

169:                                              ; preds = %168
  %170 = load i32, i32* %2, align 4
  %171 = add nsw i32 %170, 1
  store i32 %171, i32* %2, align 4
  br label %123

172:                                              ; preds = %123
  store i32 0, i32* %2, align 4
  br label %173

173:                                              ; preds = %193, %172
  %174 = load i32, i32* %2, align 4
  %175 = load i32, i32* %4, align 4
  %176 = icmp slt i32 %174, %175
  br i1 %176, label %177, label %196

177:                                              ; preds = %173
  %178 = load i32, i32* %2, align 4
  %179 = icmp eq i32 %178, 0
  br i1 %179, label %180, label %186

180:                                              ; preds = %177
  %181 = load i32, i32* %2, align 4
  %182 = sext i32 %181 to i64
  %183 = getelementptr inbounds [400 x i32], [400 x i32]* %5, i64 0, i64 %182
  %184 = load i32, i32* %183, align 4
  %185 = call i32 (i8*, ...) @printf(i8* getelementptr inbounds ([3 x i8], [3 x i8]* @.str, i64 0, i64 0), i32 %184)
  br label %192

186:                                              ; preds = %177
  %187 = load i32, i32* %2, align 4
  %188 = sext i32 %187 to i64
  %189 = getelementptr inbounds [400 x i32], [400 x i32]* %5, i64 0, i64 %188
  %190 = load i32, i32* %189, align 4
  %191 = call i32 (i8*, ...) @printf(i8* getelementptr inbounds ([4 x i8], [4 x i8]* @.str.1, i64 0, i64 0), i32 %190)
  br label %192

192:                                              ; preds = %186, %180
  br label %193

193:                                              ; preds = %192
  %194 = load i32, i32* %2, align 4
  %195 = add nsw i32 %194, 1
  store i32 %195, i32* %2, align 4
  br label %173

196:                                              ; preds = %173
  ret void
}

declare dso_local i32 @__isoc99_scanf(i8*, ...) #1

declare dso_local i32 @printf(i8*, ...) #1


!llvm.module.flags = !{!0}
!llvm.ident = !{!1}

!0 = !{i32 1, !"wchar_size", i32 4}
!1 = !{!"clang version 10.0.0-4ubuntu1 "}
